Certificate:
    Data:
        Version: 3 (0x2)
        Serial Number:
            45:01:ee:39:3e:52:29:78:36:df:85:42:c8:e5:7b:bb:88:d1:4b:37
        Signature Algorithm: sha256WithRSAEncryption
        Issuer: O = Debian, CN = Debian UEFI Secure Boot (PK/KEK key), emailAddress = debian-devel@lists.debian.org
        Validity
            Not Before: Jul  8 23:42:49 2019 GMT
            Not After : Jul  5 23:42:49 2029 GMT
        Subject: O = Debian, CN = Debian UEFI Secure Boot (PK/KEK key), emailAddress = debian-devel@lists.debian.org
        Subject Public Key Info:
            Public Key Algorithm: rsaEncryption
                RSA Public-Key: (2048 bit)
                Modulus:
                    00:9b:ab:49:8b:ba:a5:fa:54:2a:71:9a:79:05:c4:
                    1b:46:11:c5:b3:bd:59:62:80:71:ad:bb:6c:c4:50:
                    a8:96:d6:89:eb:e8:11:d4:88:3c:49:e4:8f:51:cd:
                    a5:87:c3:d2:fe:51:1e:3a:1b:bf:d8:5b:38:53:b5:
                    9d:68:52:d1:3e:82:cb:db:fd:5e:01:81:30:c4:be:
                    73:e0:d6:56:3f:4a:28:f1:33:d7:52:61:7b:84:a2:
                    40:a2:18:88:78:5b:14:d0:1e:6d:6a:b8:ae:10:44:
                    af:12:99:a6:7b:2d:e9:ba:8d:0a:58:93:38:69:eb:
                    6d:f0:6f:97:22:fe:e0:0f:b4:a4:f9:c8:2b:3b:73:
                    b9:51:cf:1f:1f:e5:66:07:cb:dd:f7:4e:f3:57:2a:
                    49:69:53:41:80:fc:d5:6a:75:d9:ba:0d:67:bd:53:
                    c6:1d:d5:e5:65:bf:0b:8d:fc:16:58:65:ed:59:a6:
                    57:8f:33:48:a6:6c:27:dc:b4:1d:9e:94:9e:63:8b:
                    19:02:bf:e0:01:52:34:28:a4:13:88:fe:f9:7b:06:
                    1d:e2:77:85:07:9e:4e:1b:aa:ca:0c:6a:e4:df:2b:
                    e9:8a:ac:42:05:de:32:d5:34:f9:e2:6f:96:c2:d4:
                    05:5f:c9:20:d8:33:9a:01:82:5d:94:69:78:4e:2e:
                    e0:c7
                Exponent: 65537 (0x10001)
        X509v3 extensions:
            X509v3 Subject Key Identifier:
                88:09:EB:9F:FA:7D:2D:5D:DB:30:67:A7:AF:B9:89:8E:A3:EE:02:73
            X509v3 Authority Key Identifier:
                keyid:88:09:EB:9F:FA:7D:2D:5D:DB:30:67:A7:AF:B9:89:8E:A3:EE:02:73

            X509v3 Basic Constraints: critical
                CA:TRUE
    Signature Algorithm: sha256WithRSAEncryption
         0a:74:2f:89:80:5e:1e:c4:f2:c9:a2:4d:b6:34:ee:b1:68:9d:
         f2:bd:77:85:e5:68:66:d5:ff:76:20:29:9f:0d:f3:cd:1b:9f:
         22:4e:26:9d:11:19:93:96:a3:9b:0c:fd:88:df:a0:ef:11:09:
         1e:c2:70:6f:20:f6:fe:be:c3:5a:3c:40:47:79:a0:2c:82:c6:
         42:3c:c4:3c:af:55:7f:8a:c3:0d:0c:6a:cf:9f:7c:9d:bc:b5:
         6d:33:73:cd:f9:13:0e:8e:4d:ce:f8:f6:54:74:c7:90:28:eb:
         6f:58:31:d6:41:9e:25:a7:04:40:8a:28:db:36:39:73:ea:e4:
         9e:8c:3e:42:5a:7b:05:20:78:e6:4d:69:1f:ba:bf:a1:b7:02:
         d9:e3:ab:fc:42:d9:77:cd:e0:dd:08:3b:be:96:79:5c:5d:71:
         ee:c7:68:e8:a6:08:69:2d:ff:98:ad:51:cb:1b:ef:39:b0:52:
         70:03:d3:3c:a7:ce:a5:f0:93:62:ca:6b:61:4b:dc:7b:c7:00:
         9e:80:3a:bf:af:95:79:f7:f6:14:7e:45:f1:b4:6c:c8:31:9f:
         0a:38:27:fc:3c:fb:44:22:4e:7a:d3:72:17:2f:76:5c:c6:00:
         8b:26:05:15:95:eb:71:52:5f:5b:90:c8:cb:fd:53:01:a4:ff:
         0a:c8:ad:25
-----BEGIN CERTIFICATE-----
MIIDvTCCAqWgAwIBAgIURQHuOT5SKXg234VCyOV7u4jRSzcwDQYJKoZIhvcNAQEL
BQAwbjEPMA0GA1UECgwGRGViaWFuMS0wKwYDVQQDDCREZWJpYW4gVUVGSSBTZWN1
cmUgQm9vdCAoUEsvS0VLIGtleSkxLDAqBgkqhkiG9w0BCQEWHWRlYmlhbi1kZXZl
bEBsaXN0cy5kZWJpYW4ub3JnMB4XDTE5MDcwODIzNDI0OVoXDTI5MDcwNTIzNDI0
OVowbjEPMA0GA1UECgwGRGViaWFuMS0wKwYDVQQDDCREZWJpYW4gVUVGSSBTZWN1
cmUgQm9vdCAoUEsvS0VLIGtleSkxLDAqBgkqhkiG9w0BCQEWHWRlYmlhbi1kZXZl
bEBsaXN0cy5kZWJpYW4ub3JnMIIBIjANBgkqhkiG9w0BAQEFAAOCAQ8AMIIBCgKC
AQEAm6tJi7ql+lQqcZp5BcQbRhHFs71ZYoBxrbtsxFColtaJ6+gR1Ig8SeSPUc2l
h8PS/lEeOhu/2Fs4U7WdaFLRPoLL2/1eAYEwxL5z4NZWP0oo8TPXUmF7hKJAohiI
eFsU0B5tariuEESvEpmmey3puo0KWJM4aett8G+XIv7gD7Sk+cgrO3O5Uc8fH+Vm
B8vd907zVypJaVNBgPzVanXZug1nvVPGHdXlZb8LjfwWWGXtWaZXjzNIpmwn3LQd
npSeY4sZAr/gAVI0KKQTiP75ewYd4neFB55OG6rKDGrk3yvpiqxCBd4y1TT54m+W
wtQFX8kg2DOaAYJdlGl4Ti7gxwIDAQABo1MwUTAdBgNVHQ4EFgQUiAnrn/p9LV3b
MGenr7mJjqPuAnMwHwYDVR0jBBgwFoAUiAnrn/p9LV3bMGenr7mJjqPuAnMwDwYD
VR0TAQH/BAUwAwEB/zANBgkqhkiG9w0BAQsFAAOCAQEACnQviYBeHsTyyaJNtjTu
sWid8r13heVoZtX/diApnw3zzRufIk4mnREZk5ajmwz9iN+g7xEJHsJwbyD2/r7D
WjxAR3mgLILGQjzEPK9Vf4rDDQxqz598nby1bTNzzfkTDo5Nzvj2VHTHkCjrb1gx
1kGeJacEQIoo2zY5c+rknow+Qlp7BSB45k1pH7q/obcC2eOr/ELZd83g3Qg7vpZ5
XF1x7sdo6KYIaS3/mK1RyxvvObBScAPTPKfOpfCTYsprYUvce8cAnoA6v6+Veff2
FH5F8bRsyDGfCjgn/Dz7RCJOetNyFy92XMYAiyYFFZXrcVJfW5DIy/1TAaT/Csit
JQ==
-----END CERTIFICATE-----
